target datalayout = "e-m:e-p270:32:32-p271:32:32-p272:64:64-i64:64-i128:128-f80:128-n8:16:32:64-S128"
target triple = "x86_64-unknown-linux-gnu"

%"class.icu_75::UObject" = type { ptr }
%"class.icu_75::UnicodeString" = type { %"class.icu_75::Replaceable", %"union.icu_75::UnicodeString::StackBufferOrFields" }
%"class.icu_75::Replaceable" = type { %"class.icu_75::UObject" }
%"union.icu_75::UnicodeString::StackBufferOrFields" = type { %struct.anon.0, [32 x i8] }
%struct.anon.0 = type { i16, i32, i32, ptr }
%"class.icu_75::PluralRuleParser" = type { ptr, ptr, i32, %"class.icu_75::UnicodeString", i32, i32, ptr, ptr, i32, i32 }
%struct.anon = type { i16, [27 x i16] }

@_ZTVN6icu_7516PluralRuleParserE = unnamed_addr constant { [4 x ptr] } { [4 x ptr] [ptr null, ptr @_ZTIN6icu_7516PluralRuleParserE, ptr @_ZN6icu_7516PluralRuleParserD1Ev, ptr @_ZN6icu_7516PluralRuleParserD0Ev] }, align 8
@_ZTVN6icu_757UObjectE = external unnamed_addr constant { [5 x ptr] }, align 8
@_ZTVN6icu_7513UnicodeStringE = external unnamed_addr constant { [13 x ptr] }, align 8
@_ZTVN6icu_7511ReplaceableE = external unnamed_addr constant { [13 x ptr] }, align 8

; Function Attrs: mustprogress nounwind uwtable
define linkonce_odr void @_ZN6icu_757UObjectC2Ev(ptr noundef nonnull align 8 dereferenceable(8) %this) unnamed_addr #0 comdat align 2 {
entry:
  %this.addr = alloca ptr, align 8
  store ptr %this, ptr %this.addr, align 8
  %this1 = load ptr, ptr %this.addr, align 8
  store ptr getelementptr inbounds ({ [5 x ptr] }, ptr @_ZTVN6icu_757UObjectE, i32 0, i32 0, i32 2), ptr %this1, align 8
  ret void
}

; Function Attrs: mustprogress nounwind uwtable
define linkonce_odr void @_ZN6icu_7511ReplaceableC2Ev(ptr noundef nonnull align 8 dereferenceable(8) %this) unnamed_addr #0 comdat align 2 {
entry:
  %this.addr = alloca ptr, align 8
  store ptr %this, ptr %this.addr, align 8
  %this1 = load ptr, ptr %this.addr, align 8
  call void @_ZN6icu_757UObjectC2Ev(ptr noundef nonnull align 8 dereferenceable(8) %this1) #13
  store ptr getelementptr inbounds ({ [13 x ptr] }, ptr @_ZTVN6icu_7511ReplaceableE, i32 0, i32 0, i32 2), ptr %this1, align 8
  ret void
}

; Function Attrs: mustprogress uwtable
define linkonce_odr void @_ZN6icu_7513UnicodeStringC2Ev(ptr noundef nonnull align 8 dereferenceable(64) %this) unnamed_addr #1 comdat align 2 {
entry:
  %this.addr = alloca ptr, align 8
  store ptr %this, ptr %this.addr, align 8
  %this1 = load ptr, ptr %this.addr, align 8
  call void @_ZN6icu_7511ReplaceableC2Ev(ptr noundef nonnull align 8 dereferenceable(8) %this1)
  store ptr getelementptr inbounds ({ [13 x ptr] }, ptr @_ZTVN6icu_7513UnicodeStringE, i32 0, i32 0, i32 2), ptr %this1, align 8
  %fUnion2 = getelementptr inbounds %"class.icu_75::UnicodeString", ptr %this1, i32 0, i32 1
  %fLengthAndFlags = getelementptr inbounds %struct.anon, ptr %fUnion2, i32 0, i32 0
  store i16 2, ptr %fLengthAndFlags, align 8
  ret void
}

; Function Attrs: mustprogress uwtable
define void @_ZN6icu_7516PluralRuleParserC2Ev(ptr noundef nonnull align 8 dereferenceable(120) %this) unnamed_addr #1 align 2 {
entry:
  %this.addr = alloca ptr, align 8
  store ptr %this, ptr %this.addr, align 8
  %this1 = load ptr, ptr %this.addr, align 8
  store ptr getelementptr inbounds ({ [4 x ptr] }, ptr @_ZTVN6icu_7516PluralRuleParserE, i32 0, i32 0, i32 2), ptr %this1, align 8
  %ruleIndex = getelementptr inbounds %"class.icu_75::PluralRuleParser", ptr %this1, i32 0, i32 2
  store i32 0, ptr %ruleIndex, align 8
  %token = getelementptr inbounds %"class.icu_75::PluralRuleParser", ptr %this1, i32 0, i32 3
  call void @_ZN6icu_7513UnicodeStringC2Ev(ptr noundef nonnull align 8 dereferenceable(64) %token)
  %type = getelementptr inbounds %"class.icu_75::PluralRuleParser", ptr %this1, i32 0, i32 4
  store i32 0, ptr %type, align 8
  %prevType = getelementptr inbounds %"class.icu_75::PluralRuleParser", ptr %this1, i32 0, i32 5
  store i32 0, ptr %prevType, align 4
  %curAndConstraint = getelementptr inbounds %"class.icu_75::PluralRuleParser", ptr %this1, i32 0, i32 6
  store ptr null, ptr %curAndConstraint, align 8
  %currentChain = getelementptr inbounds %"class.icu_75::PluralRuleParser", ptr %this1, i32 0, i32 7
  store ptr null, ptr %currentChain, align 8
  %rangeLowIdx = getelementptr inbounds %"class.icu_75::PluralRuleParser", ptr %this1, i32 0, i32 8
  store i32 -1, ptr %rangeLowIdx, align 8
  %rangeHiIdx = getelementptr inbounds %"class.icu_75::PluralRuleParser", ptr %this1, i32 0, i32 9
  store i32 -1, ptr %rangeHiIdx, align 4
  ret void
}