; Function Attrs: mustprogress nofree norecurse nosync nounwind willreturn memory(argmem: write) uwtable
define void @_ZN6icu_7516PluralRuleParserC2Ev(ptr nocapture noundef nonnull writeonly align 8 dereferenceable(120) %this) unnamed_addr #7 align 2 {
entry:
  store ptr getelementptr inbounds ({ [4 x ptr] }, ptr @_ZTVN6icu_7516PluralRuleParserE, i64 0, i32 0, i64 2), ptr %this, align 8
  %ruleIndex = getelementptr inbounds i8, ptr %this, i64 16
  store i32 0, ptr %ruleIndex, align 8
  %token = getelementptr inbounds i8, ptr %this, i64 24
  store ptr getelementptr inbounds ({ [13 x ptr] }, ptr @_ZTVN6icu_7513UnicodeStringE, i64 0, i32 0, i64 2), ptr %token, align 8
  %fUnion2.i = getelementptr inbounds i8, ptr %this, i64 32
  store i16 2, ptr %fUnion2.i, align 8
  %type = getelementptr inbounds i8, ptr %this, i64 88
  %rangeLowIdx = getelementptr inbounds i8, ptr %this, i64 112
  tail call void @llvm.memset.p0.i64(ptr noundef nonnull align 8 dereferenceable(24) %type, i8 0, i64 24, i1 false)
  store i32 -1, ptr %rangeLowIdx, align 8
  %rangeHiIdx = getelementptr inbounds i8, ptr %this, i64 116
  store i32 -1, ptr %rangeHiIdx, align 4
  ret void
}